; Function Attrs: mustprogress nounwind uwtable
define void @_ZN32pxrInternal_v0_24__pxrReserved__28PcpErrorPrimPermissionDeniedD2Ev(ptr noundef nonnull align 8 dereferenceable(280) %0) unnamed_addr #2 align 2 personality ptr @__gxx_personality_v0 {
  store ptr getelementptr inbounds inrange(-16, 24) (i8, ptr @_ZTVN32pxrInternal_v0_24__pxrReserved__28PcpErrorPrimPermissionDeniedE, i64 16), ptr %0, align 8
  %2 = getelementptr inbounds nuw i8, ptr %0, i64 192
  %3 = getelementptr inbounds i8, ptr %0, i64 272
  %4 = load i32, ptr %3, align 8
  %.not.i.i.i = icmp eq i32 %4, 0
  br i1 %.not.i.i.i, label %_ZN32pxrInternal_v0_24__pxrReserved__7PcpSiteD2Ev.exit, label %5

5:                                                ; preds = %1
  %6 = and i32 %4, 255
  %7 = lshr i32 %4, 8
  %8 = zext nneg i32 %6 to i64
  %9 = getelementptr inbounds [257 x ptr], ptr @_ZN32pxrInternal_v0_24__pxrReserved__8Sdf_PoolINS_15Sdf_PathPrimTagELj24ELj8ELj16384EE13_regionStartsE, i64 0, i64 %8
  %10 = load ptr, ptr %9, align 8
  %11 = mul nuw nsw i32 %7, 24
  %12 = zext nneg i32 %11 to i64
  %13 = getelementptr inbounds i8, ptr %10, i64 %12
  %14 = getelementptr inbounds nuw i8, ptr %13, i64 8
  %15 = atomicrmw sub ptr %14, i32 1 seq_cst, align 4
  %16 = and i32 %15, 2147483647
  %17 = icmp eq i32 %16, 1
  br i1 %17, label %18, label %_ZN32pxrInternal_v0_24__pxrReserved__7PcpSiteD2Ev.exit

18:                                               ; preds = %5
  invoke void @_ZNK32pxrInternal_v0_24__pxrReserved__12Sdf_PathNode8_DestroyEv(ptr noundef nonnull align 8 dereferenceable(16) %13)
          to label %_ZN32pxrInternal_v0_24__pxrReserved__7PcpSiteD2Ev.exit unwind label %19

19:                                               ; preds = %18
  %20 = landingpad { ptr, i32 }
          catch ptr null
  %21 = extractvalue { ptr, i32 } %20, 0
  tail call void @__clang_call_terminate(ptr %21) #18
  unreachable

_ZN32pxrInternal_v0_24__pxrReserved__7PcpSiteD2Ev.exit: ; preds = %1, %5, %18
  tail call void @_ZN32pxrInternal_v0_24__pxrReserved__23PcpLayerStackIdentifierD2Ev(ptr noundef nonnull align 8 dereferenceable(80) %2) #19
  %22 = getelementptr inbounds nuw i8, ptr %0, i64 104
  %23 = getelementptr inbounds i8, ptr %0, i64 184
  %24 = load i32, ptr %23, align 8
  %.not.i.i.i1 = icmp eq i32 %24, 0
  br i1 %.not.i.i.i1, label %_ZN32pxrInternal_v0_24__pxrReserved__7PcpSiteD2Ev.exit2, label %25

25:                                               ; preds = %_ZN32pxrInternal_v0_24__pxrReserved__7PcpSiteD2Ev.exit
  %26 = and i32 %24, 255
  %27 = lshr i32 %24, 8
  %28 = zext nneg i32 %26 to i64
  %29 = getelementptr inbounds [257 x ptr], ptr @_ZN32pxrInternal_v0_24__pxrReserved__8Sdf_PoolINS_15Sdf_PathPrimTagELj24ELj8ELj16384EE13_regionStartsE, i64 0, i64 %28
  %30 = load ptr, ptr %29, align 8
  %31 = mul nuw nsw i32 %27, 24
  %32 = zext nneg i32 %31 to i64
  %33 = getelementptr inbounds i8, ptr %30, i64 %32
  %34 = getelementptr inbounds nuw i8, ptr %33, i64 8
  %35 = atomicrmw sub ptr %34, i32 1 seq_cst, align 4
  %36 = and i32 %35, 2147483647
  %37 = icmp eq i32 %36, 1
  br i1 %37, label %38, label %_ZN32pxrInternal_v0_24__pxrReserved__7PcpSiteD2Ev.exit2

38:                                               ; preds = %25
  invoke void @_ZNK32pxrInternal_v0_24__pxrReserved__12Sdf_PathNode8_DestroyEv(ptr noundef nonnull align 8 dereferenceable(16) %33)
          to label %_ZN32pxrInternal_v0_24__pxrReserved__7PcpSiteD2Ev.exit2 unwind label %39

39:                                               ; preds = %38
  %40 = landingpad { ptr, i32 }
          catch ptr null
  %41 = extractvalue { ptr, i32 } %40, 0
  tail call void @__clang_call_terminate(ptr %41) #18
  unreachable

_ZN32pxrInternal_v0_24__pxrReserved__7PcpSiteD2Ev.exit2: ; preds = %_ZN32pxrInternal_v0_24__pxrReserved__7PcpSiteD2Ev.exit, %25, %38
  tail call void @_ZN32pxrInternal_v0_24__pxrReserved__23PcpLayerStackIdentifierD2Ev(ptr noundef nonnull align 8 dereferenceable(80) %22) #19
  store ptr getelementptr inbounds inrange(-16, 24) (i8, ptr @_ZTVN32pxrInternal_v0_24__pxrReserved__12PcpErrorBaseE, i64 16), ptr %0, align 8
  %42 = getelementptr inbounds i8, ptr %0, i64 96
  %43 = load i32, ptr %42, align 8
  %.not.i.i.i.i = icmp eq i32 %43, 0
  br i1 %.not.i.i.i.i, label %_ZN32pxrInternal_v0_24__pxrReserved__12PcpErrorBaseD2Ev.exit, label %44

44:                                               ; preds = %_ZN32pxrInternal_v0_24__pxrReserved__7PcpSiteD2Ev.exit2
  %45 = and i32 %43, 255
  %46 = lshr i32 %43, 8
  %47 = zext nneg i32 %45 to i64
  %48 = getelementptr inbounds [257 x ptr], ptr @_ZN32pxrInternal_v0_24__pxrReserved__8Sdf_PoolINS_15Sdf_PathPrimTagELj24ELj8ELj16384EE13_regionStartsE, i64 0, i64 %47
  %49 = load ptr, ptr %48, align 8
  %50 = mul nuw nsw i32 %46, 24
  %51 = zext nneg i32 %50 to i64
  %52 = getelementptr inbounds i8, ptr %49, i64 %51
  %53 = getelementptr inbounds nuw i8, ptr %52, i64 8
  %54 = atomicrmw sub ptr %53, i32 1 seq_cst, align 4
  %55 = and i32 %54, 2147483647
  %56 = icmp eq i32 %55, 1
  br i1 %56, label %57, label %_ZN32pxrInternal_v0_24__pxrReserved__12PcpErrorBaseD2Ev.exit

57:                                               ; preds = %44
  invoke void @_ZNK32pxrInternal_v0_24__pxrReserved__12Sdf_PathNode8_DestroyEv(ptr noundef nonnull align 8 dereferenceable(16) %52)
          to label %_ZN32pxrInternal_v0_24__pxrReserved__12PcpErrorBaseD2Ev.exit unwind label %58

58:                                               ; preds = %57
  %59 = landingpad { ptr, i32 }
          catch ptr null
  %60 = extractvalue { ptr, i32 } %59, 0
  tail call void @__clang_call_terminate(ptr %60) #18
  unreachable

_ZN32pxrInternal_v0_24__pxrReserved__12PcpErrorBaseD2Ev.exit: ; preds = %_ZN32pxrInternal_v0_24__pxrReserved__7PcpSiteD2Ev.exit2, %44, %57
  %61 = getelementptr inbounds nuw i8, ptr %0, i64 16
  tail call void @_ZN32pxrInternal_v0_24__pxrReserved__23PcpLayerStackIdentifierD2Ev(ptr noundef nonnull align 8 dereferenceable(80) %61) #19
  ret void
}